(dp0
I113059
(dp1
I2000
(lp2
L961914L
aL621976L
aL622887L
aL105555L
aL545222L
aL211098L
aL211553L
aL1059847L
aL1065535L
aL1059400L
aL473152L
aL972754L
asI2001
(lp3
L611162L
aL1089457L
aL971908L
aL622872L
aL969989L
aL545375L
aL243072L
aL211534L
aL268839L
asI2002
(lp4
L543980L
aL588442L
aL950635L
aL622874L
aL621835L
aL949999L
aL210456L
aL109218L
aL586043L
aL557820L
aL481333L
aL267923L
aL972279L
aL1090463L
asI2003
(lp5
L543957L
aL971802L
aL211449L
aL1168297L
aL972403L
aL609870L
aL66301L
aL1118457L
aL1182784L
aL204371L
aL505763L
aL888048L
aL699044L
asI2004
(lp6
L481188L
aL250986L
aL621936L
aL543791L
aL950884L
aL38895L
asI2005
(lp7
L186082L
aL147438L
aL611167L
aL611164L
aL1093900L
aL674320L
aL841355L
aL622876L
aL654342L
aL662410L
aL304087L
aL662480L
aL861655L
aL861606L
aL861631L
aL46477L
aL114498L
aL3002225L
asI2006
(lp8
L821514L
aL268110L
aL862294L
aL662452L
aL621825L
aL267762L
aL798530L
aL972650L
aL622136L
aL592780L
aL992561L
aL750786L
asI2007
(lp9
L592921L
aL1095514L
aL592927L
aL506591L
aL186584L
aL862177L
aL662642L
aL662654L
aL824210L
aL212182L
aL3001057L
asI2008
(lp10
L713565L
aL212248L
aL623456L
aL416182L
aL951988L
aL951999L
aL828139L
aL212210L
aL662572L
aL611513L
aL611495L
aL2819182L
aL2876311L
aL2939980L
asI2009
(lp11
L1341478L
aL1212979L
aL1060926L
aL1209597L
aL1096570L
aL1214547L
aL1222453L
aL1310300L
aL1209632L
aL778037L
aL1273062L
aL1287096L
assI1385190
(dp12
I2000
(lp13
sI2001
(lp14
sI2002
(lp15
sI2003
(lp16
L223844L
aL250994L
aL344819L
aL538705L
aL990000L
asI2004
(lp17
L297312L
aL297864L
aL343974L
aL344962L
aL401685L
aL409934L
aL489667L
aL519827L
aL808758L
aL885260L
aL1141410L
asI2005
(lp18
L10129L
aL46791L
aL163028L
aL163114L
aL289734L
aL289744L
aL298410L
aL298977L
aL299026L
aL304582L
aL343153L
aL409208L
aL489670L
aL627817L
aL654769L
aL1082789L
aL1125354L
aL1126105L
aL3174963L
asI2006
(lp19
L163111L
aL338566L
aL338594L
aL403382L
aL403479L
aL411601L
aL411755L
aL519652L
aL599983L
aL708888L
aL708906L
aL990149L
aL1125344L
aL1125527L
aL1126000L
asI2007
(lp20
L298025L
aL298038L
aL338539L
aL344857L
aL344912L
aL344942L
aL403305L
aL412071L
aL412226L
aL412934L
aL505657L
aL538900L
aL538906L
aL565639L
aL644133L
aL675121L
aL691984L
aL877253L
aL1003606L
aL1126195L
aL1126273L
aL1126286L
asI2008
(lp21
L298224L
aL345121L
aL403962L
aL412596L
aL412842L
aL506004L
aL506483L
aL506620L
aL539060L
aL584665L
aL675471L
aL803046L
aL803052L
aL877627L
aL1013067L
aL1114136L
aL1126419L
aL1126422L
aL1126423L
aL1141665L
aL1171658L
aL1185492L
aL1321946L
aL1321955L
aL2819887L
asI2009
(lp22
L990421L
aL1123153L
aL1124509L
aL1126448L
aL1169933L
aL1206851L
aL1212746L
aL1227768L
aL1246379L
aL1254391L
aL1255535L
aL1267902L
aL1282173L
aL1303621L
aL1320312L
aL1320352L
aL2800462L
aL2800463L
aL2800671L
aL2800697L
aL3018514L
aL3018610L
aL3037471L
assI379284
(dp23
I2000
(lp24
sI2001
(lp25
sI2002
(lp26
sI2003
(lp27
sI2004
(lp28
sI2005
(lp29
sI2006
(lp30
sI2007
(lp31
sI2008
(lp32
sI2009
(lp33
ssI265966
(dp34
I2000
(lp35
L473495L
aL472413L
aL95617L
aL297324L
aL298285L
aL473406L
aL597989L
aL795231L
aL1063708L
aL489384L
aL96042L
aL473047L
aL844263L
aL1065653L
aL856235L
aL345375L
asI2001
(lp36
L473497L
aL1077929L
aL674929L
aL95514L
aL597991L
aL832096L
aL302480L
aL1120020L
aL1113718L
aL1113729L
aL1113732L
aL1064167L
aL1112353L
aL1120483L
aL1112355L
aL473033L
aL302978L
aL302981L
aL673686L
asI2002
(lp37
L1016653L
aL674899L
aL641905L
aL578931L
aL1112656L
aL301522L
aL1113737L
aL1113740L
aL658940L
aL832340L
aL296738L
aL579162L
aL335275L
aL1112357L
aL579092L
aL1112349L
aL1112347L
aL302593L
aL96071L
aL473014L
aL12686L
aL599991L
aL303031L
aL831943L
aL297555L
aL121219L
aL599920L
aL302974L
aL121288L
aL2809230L
asI2003
(lp38
L1124812L
aL388365L
aL416254L
aL473387L
aL641901L
aL473471L
aL673866L
aL63370L
aL643892L
aL1112578L
aL1113745L
aL1113748L
aL301359L
aL1113817L
aL296963L
aL856002L
aL579172L
aL302815L
aL755105L
aL302784L
aL302595L
aL755019L
aL1003603L
aL297556L
aL599915L
asI2004
(lp39
L472403L
aL674878L
aL641903L
aL891729L
aL301550L
aL578925L
aL302481L
aL13875L
aL302589L
aL658942L
aL1113754L
aL1113757L
aL1113751L
aL95357L
aL1116553L
aL298922L
aL839666L
aL579101L
aL1112343L
aL176190L
aL489334L
aL96063L
aL568821L
aL1003609L
aL302979L
aL1003595L
aL599987L
aL48522L
aL176384L
aL96817L
aL506672L
aL618296L
aL527246L
aL618361L
aL178477L
aL2784170L
asI2005
(lp40
L1118759L
aL473517L
aL140875L
aL473539L
aL1063611L
aL674921L
aL473396L
aL95422L
aL578922L
aL578924L
aL302585L
aL302587L
aL95440L
aL542001L
aL499791L
aL541999L
aL579032L
aL571228L
aL95358L
aL642611L
aL301361L
aL2743L
aL579136L
aL302813L
aL302806L
aL579078L
aL579097L
aL579134L
aL579123L
aL579126L
aL332280L
aL296867L
aL437575L
aL473042L
aL302672L
aL839504L
aL642251L
aL599988L
aL1003587L
aL1137970L
aL903341L
aL95982L
aL655134L
aL502272L
aL506674L
aL943595L
aL302927L
aL299930L
aL299929L
aL302969L
asI2006
(lp41
L300082L
aL15315L
aL1118770L
aL920687L
aL567232L
aL472377L
aL1025389L
aL473405L
aL541840L
aL578926L
aL599494L
aL911581L
aL301490L
aL541997L
aL1112787L
aL1112802L
aL644074L
aL1113851L
aL301335L
aL335291L
aL839652L
aL1112345L
aL176166L
aL96251L
aL1113502L
aL473041L
aL473021L
aL303119L
aL472702L
aL176475L
aL1003601L
aL652121L
aL303139L
aL303175L
aL303185L
aL1003524L
aL303202L
aL303088L
aL623788L
aL503365L
aL176634L
aL1113314L
aL2780049L
aL2805335L
asI2007
(lp42
L767129L
aL600159L
aL1113908L
aL713597L
aL438895L
aL473563L
aL839715L
aL1113947L
aL403143L
aL1113985L
aL332756L
aL36149L
aL16061L
aL411985L
aL336227L
aL1116692L
aL1313844L
aL1063743L
aL542134L
aL644209L
aL875937L
aL644184L
aL644188L
aL1126282L
aL301817L
aL303407L
aL644173L
aL301722L
aL301746L
aL301751L
aL303475L
aL301736L
aL301737L
aL579266L
aL579207L
aL579206L
aL644245L
aL644244L
aL301629L
aL579260L
aL1003622L
aL600051L
aL1003576L
aL251319L
aL473642L
aL473712L
aL473665L
aL473693L
aL527320L
aL3114662L
aL3170003L
aL3170068L
asI2008
(lp43
L176715L
aL96590L
aL1185995L
aL96569L
aL839725L
aL839729L
aL176694L
aL1118825L
aL1113976L
aL1288325L
aL652364L
aL96521L
aL302143L
aL302141L
aL298249L
aL600275L
aL1138380L
aL302104L
aL302093L
aL16183L
aL527511L
aL929462L
aL303714L
aL303690L
aL303691L
aL303685L
aL303682L
aL1167798L
aL1124153L
aL1126325L
aL1202741L
aL542216L
aL579326L
aL579212L
aL579215L
aL579225L
aL473754L
aL301953L
aL251273L
aL301961L
aL579339L
aL579336L
aL301976L
aL600054L
aL301989L
aL473802L
aL301994L
aL710420L
aL473822L
aL710412L
aL302013L
aL371205L
aL301923L
aL1003702L
aL3168482L
aL3169997L
aL3170011L
aL3170039L
aL3170074L
asI2009
(lp44
L1213557L
aL1213521L
aL302317L
aL176877L
aL1138376L
aL176807L
aL1138320L
aL1339992L
aL1213601L
aL1278723L
aL1222442L
aL1319546L
aL1319531L
aL302360L
aL1281918L
aL1319638L
aL302416L
aL1230107L
aL1292074L
aL1249366L
aL1167811L
aL1286911L
aL1276557L
aL1310237L
aL1286930L
aL1269023L
aL1296765L
aL1246419L
aL1279398L
aL2793722L
aL2793723L
aL2835105L
aL3134107L
assI412623
(dp45
I2000
(lp46
L1095011L
aL156883L
aL839644L
aL2593L
aL299756L
aL299927L
asI2001
(lp47
L597968L
aL304119L
aL1112655L
aL1341810L
aL545407L
aL2939394L
asI2002
(lp48
L3004328L
aL3004429L
aL3004432L
asI2003
(lp49
L598723L
aL140911L
aL817512L
aL972797L
aL599880L
aL3004039L
asI2004
(lp50
sI2005
(lp51
L1064579L
aL24745L
aL769438L
asI2006
(lp52
sI2007
(lp53
L973237L
asI2008
(lp54
sI2009
(lp55
L1265070L
aL777991L
aL2939765L
assI162800
(dp56
I2000
(lp57
L643070L
aL1065417L
aL184552L
aL599116L
aL2593L
aL184424L
aL1063874L
aL87796L
aL793602L
aL598381L
aL598384L
aL157543L
aL642282L
aL642287L
aL299776L
aL794311L
asI2001
(lp58
L654489L
aL300170L
aL673858L
aL506251L
aL87795L
aL674194L
aL544083L
aL1120205L
aL644062L
aL467394L
aL467412L
aL674460L
aL1120490L
aL844944L
aL1138108L
aL674686L
aL643551L
asI2002
(lp59
L673920L
aL1120101L
aL1120019L
aL83844L
aL544084L
aL467427L
aL467463L
aL467465L
aL296727L
aL300643L
aL297871L
aL413345L
aL653834L
aL176494L
aL1113115L
aL296695L
aL299950L
aL3004429L
asI2003
(lp60
L400784L
aL303907L
aL597898L
aL525334L
aL1064544L
aL674209L
aL144930L
aL1112668L
aL299374L
aL1120123L
aL301500L
aL300361L
aL654019L
aL1118254L
aL783878L
aL617121L
aL674555L
aL84115L
aL196747L
aL413347L
aL817512L
aL297720L
aL491627L
aL115952L
aL1118559L
aL300920L
aL67845L
aL1120526L
aL643552L
asI2004
(lp61
L181748L
aL654569L
aL598133L
aL525341L
aL641899L
aL176977L
aL83846L
aL642709L
aL642652L
aL592876L
aL43466L
aL502735L
aL674557L
aL296795L
aL297879L
aL183253L
aL413408L
aL297721L
aL467766L
aL1141258L
asI2005
(lp62
L94704L
aL1124860L
aL525336L
aL876747L
aL1120021L
aL642708L
aL769438L
aL844520L
aL413727L
aL806623L
aL297867L
aL701676L
aL1154454L
aL986342L
aL1154289L
aL467768L
aL299944L
asI2006
(lp63
L617481L
aL98916L
aL642707L
aL480655L
aL794835L
aL1142620L
aL96241L
aL844244L
aL796017L
aL796021L
aL1120619L
asI2007
(lp64
L94719L
aL929395L
aL825552L
aL973196L
aL846349L
aL298095L
aL701645L
aL544599L
asI2008
(lp65
L91299L
aL1185999L
aL662554L
aL675201L
aL1167936L
aL1066020L
aL525003L
aL596479L
aL675372L
aL301964L
aL301970L
aL708272L
aL710426L
aL710423L
aL185091L
aL239349L
asI2009
(lp66
L176855L
aL176860L
aL1138325L
aL1343663L
aL302350L
aL1213860L
aL302452L
aL1221687L
aL1214168L
aL1214144L
aL1214184L
aL1269084L
aL710470L
aL710464L
aL1286928L
aL710411L
aL1259496L
aL94734L
aL2843136L
aL2939765L
aL2976123L
assI745329
(dp67
I2000
(lp68
L2333L
aL144411L
aL159092L
aL301463L
aL472774L
aL473164L
aL473353L
aL527033L
aL527170L
aL598830L
aL643978L
aL982193L
aL1063492L
aL1063605L
aL1113557L
aL1120304L
asI2001
(lp69
L95779L
aL144279L
aL159093L
aL300859L
aL300860L
aL301277L
aL302751L
aL302811L
aL304099L
aL472773L
aL472861L
aL598828L
aL598829L
aL642431L
aL1065533L
asI2002
(lp70
L95765L
aL159036L
aL176642L
aL302660L
aL302809L
aL303017L
aL303059L
aL472525L
aL473034L
aL473534L
aL527192L
aL598831L
aL599991L
aL642358L
aL643081L
aL772578L
aL806648L
aL1063624L
aL1065857L
aL1113151L
aL1138024L
aL2812863L
asI2003
(lp71
L95995L
aL121240L
aL182898L
aL301341L
aL302730L
aL302953L
aL388186L
aL473387L
aL473388L
aL473470L
aL473540L
aL579170L
aL579180L
aL641901L
aL644050L
aL874659L
aL938295L
aL1113649L
aL1113690L
asI2004
(lp72
L96817L
aL159062L
aL301329L
aL301550L
aL303061L
aL472403L
aL472606L
aL472781L
aL473002L
aL473434L
aL526845L
aL541687L
aL598253L
aL599987L
aL618115L
aL618319L
aL641903L
aL643141L
aL839599L
aL839627L
aL973452L
aL1003364L
aL1063698L
aL1112717L
aL1113312L
aL1113769L
asI2005
(lp73
L2743L
aL3051L
aL300498L
aL301488L
aL438436L
aL472494L
aL473466L
aL473474L
aL473517L
aL502307L
aL541464L
aL541685L
aL542050L
aL548298L
aL579028L
aL579126L
aL599921L
aL599988L
aL601224L
aL618379L
aL644051L
aL839504L
aL839667L
aL855999L
aL1003569L
aL1064787L
aL1112520L
aL1113691L
aL1113693L
aL1118759L
aL3121459L
asI2006
(lp74
L27340L
aL96121L
aL299333L
aL300005L
aL300082L
aL300539L
aL301450L
aL301490L
aL303185L
aL303204L
aL435684L
aL473021L
aL473063L
aL473445L
aL473447L
aL526918L
aL579114L
aL579124L
aL594600L
aL598304L
aL601451L
aL642649L
aL644048L
aL644049L
aL644074L
aL651993L
aL765336L
aL839601L
aL1112345L
aL1112542L
aL1113692L
aL1113851L
aL1118770L
aL1129991L
asI2007
(lp75
L15632L
aL96256L
aL130139L
aL294127L
aL294303L
aL301653L
aL301655L
aL301719L
aL301736L
aL301751L
aL301857L
aL303397L
aL303403L
aL303407L
aL303417L
aL303464L
aL365049L
aL391413L
aL473642L
aL500541L
aL503486L
aL527320L
aL527362L
aL542135L
aL579260L
aL579279L
aL600067L
aL600127L
aL607760L
aL617771L
aL618400L
aL643645L
aL644122L
aL644173L
aL644223L
aL652303L
aL706649L
aL839712L
aL839715L
aL846326L
aL982421L
aL1113889L
aL1113990L
aL1167773L
aL1167779L
aL1220249L
aL3170002L
aL3170068L
asI2008
(lp76
L16203L
aL96591L
aL96631L
aL98595L
aL301940L
aL302102L
aL302104L
aL302115L
aL303615L
aL303632L
aL303657L
aL303682L
aL303686L
aL440614L
aL473756L
aL473784L
aL473822L
aL579312L
aL579321L
aL584601L
aL600256L
aL600271L
aL600275L
aL600290L
aL652411L
aL929462L
aL962457L
aL988124L
aL1113976L
aL1114001L
aL1114030L
aL1130115L
aL1185946L
aL1198481L
aL1201847L
aL1202741L
aL2805494L
asI2009
(lp77
L176807L
aL176862L
aL250200L
aL302271L
aL302411L
aL527678L
aL1206869L
aL1212385L
aL1212477L
aL1212486L
aL1212512L
aL1213501L
aL1213521L
aL1213551L
aL1214465L
aL1237530L
aL1239318L
aL1241768L
aL1241769L
aL1241770L
aL1246425L
aL1249523L
aL1252942L
aL1254416L
aL1276598L
aL1286868L
aL1286883L
aL1286893L
aL1286971L
aL1297226L
aL1297686L
aL1298596L
aL1299026L
aL1319477L
aL1319489L
aL1319500L
aL1319582L
aL1339992L
aL1346424L
aL2858500L
aL2904754L
aL3241635L
aL3243650L
assI496532
(dp78
I2000
(lp79
L561709L
aL612475L
asI2001
(lp80
L760457L
aL222314L
aL721336L
aL221610L
aL748444L
asI2002
(lp81
L561710L
aL217968L
aL1069675L
asI2003
(lp82
L336411L
aL61607L
aL441530L
aL721089L
aL489004L
asI2004
(lp83
L846250L
aL475883L
aL910807L
aL748445L
aL2791843L
asI2005
(lp84
L686925L
aL942236L
aL721001L
aL880690L
aL414213L
asI2006
(lp85
L367778L
aL561711L
aL1156424L
aL726066L
aL414235L
aL2791845L
aL2908637L
asI2007
(lp86
L881017L
aL1202979L
aL696533L
aL1200951L
aL720751L
aL2887814L
asI2008
(lp87
L9421L
aL1178178L
aL414408L
aL414424L
aL943008L
aL2791846L
aL2829564L
asI2009
(lp88
L1296402L
aL883166L
aL1186725L
aL1273042L
aL2773560L
aL2802106L
assI1128214
(dp89
I2000
(lp90
L297881L
aL473406L
aL473495L
aL597749L
aL973731L
aL1113702L
aL1075549L
aL1063708L
asI2001
(lp91
L301375L
aL302981L
aL518783L
aL473497L
aL651916L
asI2002
(lp92
L26539L
aL95765L
aL108354L
aL98476L
aL121219L
aL121215L
aL154747L
aL301522L
aL300292L
aL301353L
aL301371L
aL318395L
aL303031L
aL334187L
aL428064L
aL579162L
aL637907L
aL599920L
aL599991L
aL652194L
asI2003
(lp93
L60863L
aL63370L
aL120990L
aL121240L
aL154749L
aL154577L
aL154576L
aL206409L
aL300290L
aL301518L
aL301337L
aL302698L
aL302792L
aL373036L
aL424708L
aL440351L
aL579059L
aL579172L
aL526824L
aL642904L
aL599913L
aL612855L
aL973435L
aL1141907L
aL1113817L
aL1150426L
aL1195529L
asI2004
(lp94
L48486L
aL97223L
aL121041L
aL121039L
aL141075L
aL144223L
aL154578L
aL154833L
aL154464L
aL154462L
aL184060L
aL224022L
aL224150L
aL224149L
aL224130L
aL302790L
aL303029L
aL372992L
aL427191L
aL442893L
aL442923L
aL495753L
aL472815L
aL466511L
aL473403L
aL473035L
aL554256L
aL558866L
aL527188L
aL537123L
aL643979L
aL598979L
aL598656L
aL618361L
aL608877L
aL669692L
aL839666L
aL734007L
aL733768L
aL1003609L
aL1003595L
aL973741L
aL973695L
aL971107L
aL880487L
aL1064705L
aL2832362L
aL3044736L
asI2005
(lp95
L2741L
aL8253L
aL8331L
aL8451L
aL8452L
aL8502L
aL8555L
aL27424L
aL48131L
aL48436L
aL48448L
aL51610L
aL140937L
aL144361L
aL224204L
aL234327L
aL300527L
aL302788L
aL302775L
aL302977L
aL313827L
aL424924L
aL466332L
aL442934L
aL508659L
aL580352L
aL526639L
aL526973L
aL527050L
aL644098L
aL643989L
aL599921L
aL599264L
aL608899L
aL652108L
aL652118L
aL652017L
aL962009L
aL903341L
aL1131614L
aL1113700L
aL1063622L
aL1231645L
aL1181782L
aL1200991L
aL3170025L
aL3238800L
asI2006
(lp96
L27373L
aL48416L
aL54635L
aL96101L
aL97406L
aL140996L
aL140371L
aL140939L
aL147415L
aL149790L
aL224313L
aL224285L
aL261069L
aL301460L
aL301497L
aL303202L
aL303292L
aL303167L
aL413129L
aL398633L
aL398709L
aL434336L
aL430163L
aL429978L
aL429772L
aL442542L
aL441965L
aL468742L
aL473038L
aL473453L
aL491847L
aL480422L
aL562295L
aL562293L
aL579120L
aL586939L
aL526918L
aL550897L
aL552289L
aL644071L
aL671443L
aL671674L
aL671514L
aL652105L
aL652000L
aL652003L
aL652101L
aL725090L
aL708451L
aL679184L
aL839529L
aL805345L
aL739133L
aL974016L
aL973476L
aL865026L
aL1118789L
aL1063677L
aL1011381L
aL1169959L
aL1180393L
aL1328625L
aL1328497L
aL1328439L
aL1328587L
aL1328498L
aL3113929L
aL3175288L
aL3180948L
aL3181674L
aL3182560L
asI2007
(lp97
L10346L
aL10357L
aL48617L
aL48643L
aL96338L
aL113203L
aL126552L
aL122704L
aL141074L
aL141116L
aL283673L
aL281209L
aL301622L
aL301742L
aL301850L
aL304672L
aL314457L
aL303472L
aL303480L
aL332636L
aL413108L
aL398781L
aL438857L
aL429064L
aL443691L
aL445560L
aL443435L
aL526083L
aL557313L
aL579280L
aL579304L
aL527284L
aL527556L
aL527563L
aL532234L
aL618505L
aL618502L
aL618421L
aL618420L
aL600175L
aL671808L
aL671760L
aL672041L
aL652237L
aL652325L
aL723732L
aL727885L
aL699461L
aL687888L
aL823721L
aL846328L
aL982423L
aL982421L
aL942773L
aL942478L
aL942457L
aL925306L
aL1113959L
aL1013002L
aL1146386L
aL1170378L
aL1180466L
aL1314053L
aL1303754L
aL1303671L
aL2776479L
aL3099997L
aL3142251L
asI2008
(lp98
L10534L
aL36505L
aL96562L
aL141210L
aL178244L
aL197762L
aL218259L
aL218092L
aL276024L
aL301781L
aL302028L
aL301948L
aL301938L
aL302079L
aL302059L
aL303726L
aL350412L
aL417810L
aL431724L
aL431547L
aL473773L
aL527445L
aL650700L
aL600269L
aL672163L
aL675443L
aL672303L
aL672177L
aL652253L
aL652275L
aL726948L
aL728993L
aL706128L
aL716754L
aL722413L
aL689873L
aL827737L
aL756741L
aL802928L
aL735816L
aL730060L
aL730242L
aL974094L
aL1142004L
aL1133190L
aL1114026L
aL1042879L
aL1217008L
aL1171677L
aL1167786L
aL1186041L
aL1186003L
aL1181297L
aL1180495L
aL1195680L
aL1308280L
aL1311765L
aL1310560L
aL1314672L
aL1327406L
aL1263173L
aL1263181L
aL1263191L
aL1295685L
aL2846089L
aL2913200L
aL3140089L
aL3220077L
asI2009
(lp99
L141243L
aL193619L
aL176825L
aL201860L
aL201829L
aL289824L
aL289830L
aL302396L
aL302297L
aL559356L
aL675649L
aL675510L
aL1142318L
aL1214980L
aL1214250L
aL1214464L
aL1213974L
aL1214149L
aL1239485L
aL1239429L
aL1239350L
aL1239280L
aL1238937L
aL1242466L
aL1241182L
aL1240541L
aL1240520L
aL1240486L
aL1240368L
aL1239562L
aL1168162L
aL1209228L
aL1207487L
aL1209249L
aL1304168L
aL1311091L
aL1313050L
aL1313249L
aL1316564L
aL1317275L
aL1316981L
aL1317613L
aL1317460L
aL1319731L
aL1319689L
aL1324804L
aL1251348L
aL1251362L
aL1253205L
aL1254740L
aL1260127L
aL1263213L
aL1268439L
aL1271636L
aL1272529L
aL1272240L
aL1272943L
aL1282039L
aL1284456L
aL1286910L
aL1292834L
aL1339721L
aL1340562L
aL1340941L
aL2793722L
aL2793723L
aL2794557L
aL2794767L
aL2794889L
aL2795441L
aL2802199L
aL2826015L
aL2826157L
aL2831462L
aL2831635L
aL2831666L
aL2833148L
aL2834128L
aL2838167L
aL2845194L
aL2845197L
aL2845215L
aL2845249L
aL2847844L
aL2852604L
aL2876068L
aL2880281L
aL2906531L
aL2906537L
aL2906550L
aL3017609L
aL3022817L
aL3034077L
aL3034351L
aL3082111L
aL3120759L
aL3142217L
aL3142464L
aL3169725L
aL3239314L
assI324696
(dp100
I2000
(lp101
L75392L
aL346619L
aL346439L
aL348359L
aL349050L
aL773101L
aL807655L
aL1031939L
aL1033545L
aL1033546L
aL1042190L
aL1101018L
aL1100721L
aL2816607L
asI2001
(lp102
L60646L
aL60648L
aL60751L
aL127920L
aL127987L
aL128773L
aL273190L
aL294927L
aL292995L
aL318204L
aL318208L
aL318385L
aL491068L
aL1031512L
aL1032055L
aL1039064L
aL1102109L
aL2811176L
asI2002
(lp103
L169179L
aL318383L
aL346541L
aL347103L
aL346698L
aL346683L
aL348027L
aL347864L
aL347214L
aL348500L
aL516056L
aL618637L
aL1031570L
aL1031406L
aL1031817L
aL1032360L
aL1032607L
aL1039765L
aL1039769L
aL1039246L
aL1044360L
aL1041008L
aL1102110L
asI2003
(lp104
L60568L
aL60644L
aL60650L
aL60670L
aL60700L
aL60841L
aL127869L
aL127908L
aL262546L
aL294926L
aL302944L
aL317500L
aL334015L
aL709501L
aL894594L
aL1031819L
aL1031945L
aL1045732L
aL1041009L
aL1041183L
asI2004
(lp105
L76187L
aL128386L
aL168694L
aL154479L
aL154482L
aL169177L
aL274345L
aL274348L
aL274356L
aL274357L
aL274297L
aL274319L
aL274344L
aL302945L
aL317501L
aL346681L
aL346328L
aL347101L
aL347099L
aL346685L
aL348029L
aL347809L
aL368484L
aL368446L
aL368486L
aL348973L
aL579085L
aL579111L
aL604010L
aL773103L
aL619641L
aL618917L
aL619711L
aL1032539L
aL1032177L
aL1039842L
aL1037534L
aL1039760L
aL1096951L
aL1041715L
aL2784789L
asI2005
(lp106
L60432L
aL60616L
aL60651L
aL60692L
aL60830L
aL119469L
aL128378L
aL154335L
aL154337L
aL551172L
aL579083L
aL587535L
aL463239L
aL650896L
aL650894L
aL650887L
aL650885L
aL1031606L
aL1031321L
aL1033187L
aL1033019L
aL1039768L
aL1041181L
aL1197041L
aL1100661L
aL2776969L
aL2894249L
asI2006
(lp107
L119470L
aL128468L
aL154333L
aL205526L
aL274057L
aL274145L
aL274086L
aL274064L
aL347097L
aL346700L
aL348033L
aL347212L
aL348274L
aL348520L
aL349656L
aL1031251L
aL1032307L
aL1032181L
aL1033621L
aL1032844L
aL1046489L
aL1051462L
aL1185636L
asI2007
(lp108
L129862L
aL154920L
aL274126L
aL274252L
aL473710L
aL501462L
aL532274L
aL1033581L
aL1033717L
aL1185729L
aL1185747L
aL2811182L
asI2008
(lp109
L130384L
aL205842L
aL350593L
aL350462L
aL350602L
aL350293L
aL542131L
aL542195L
aL1033935L
aL1226621L
aL3105443L
asI2009
(lp110
L1300861L
aL1300094L
aL1280209L
aL1239239L
aL1226775L
aL1209752L
aL1209754L
aL1209683L
aL1209724L
aL2795123L
aL2795322L
aL2944679L
assI406745
(dp111
I2000
(lp112
L242995L
aL255156L
aL296941L
aL535199L
aL856640L
aL810518L
aL1277949L
asI2001
(lp113
L82583L
aL196608L
aL463330L
aL792894L
aL1295335L
asI2002
(lp114
L51313L
aL82746L
aL194941L
aL314806L
aL341748L
aL327184L
aL410500L
aL345415L
aL505399L
aL876682L
aL1125151L
asI2003
(lp115
L35791L
aL46843L
aL99743L
aL223876L
aL224229L
aL224259L
aL223963L
aL224172L
aL278520L
aL292180L
aL314939L
aL421867L
aL372257L
aL504683L
aL525732L
aL529393L
aL990002L
aL973448L
asI2004
(lp116
L8536L
aL48093L
aL82514L
aL97073L
aL112204L
aL190832L
aL223874L
aL223807L
aL220768L
aL224230L
aL223964L
aL224173L
aL250956L
aL278363L
aL292284L
aL291001L
aL409493L
aL409499L
aL446052L
aL463507L
aL444905L
aL519848L
aL531692L
aL532535L
aL885213L
aL2788862L
aL2788863L
aL2808736L
aL3107017L
asI2005
(lp117
L8489L
aL10157L
aL19106L
aL32345L
aL35328L
aL35736L
aL46847L
aL46845L
aL48089L
aL51615L
aL82513L
aL163043L
aL190707L
aL196317L
aL253147L
aL257243L
aL264208L
aL273528L
aL289624L
aL304613L
aL298923L
aL298689L
aL341157L
aL338881L
aL409817L
aL345177L
aL446185L
aL463643L
aL433606L
aL437483L
aL445098L
aL445221L
aL519941L
aL519912L
aL519878L
aL532663L
aL532853L
aL655258L
aL652188L
aL568353L
aL681138L
aL686018L
aL1111939L
aL990825L
aL1170330L
aL2808737L
asI2006
(lp118
L8674L
aL27884L
aL32745L
aL32828L
aL35875L
aL48091L
aL48419L
aL48253L
aL54575L
aL57809L
aL82811L
aL190706L
aL178017L
aL177565L
aL224387L
aL235491L
aL224424L
aL224449L
aL279061L
aL292102L
aL279062L
aL280486L
aL304765L
aL336913L
aL331697L
aL403479L
aL432321L
aL398631L
aL447187L
aL433607L
aL444571L
aL524565L
aL524466L
aL503252L
aL466140L
aL514318L
aL567547L
aL531433L
aL655352L
aL674172L
aL633735L
aL633688L
aL568489L
aL708937L
aL681063L
aL897717L
aL810520L
aL810519L
aL792996L
aL973988L
aL973980L
aL1163189L
aL1169731L
aL1205057L
aL1201074L
aL1310019L
aL2776905L
aL2818003L
aL2835650L
asI2007
(lp119
L36216L
aL46896L
aL48631L
aL57738L
aL83209L
aL85023L
aL113224L
aL163167L
aL122830L
aL235529L
aL224469L
aL224564L
aL237544L
aL236897L
aL277847L
aL264238L
aL264244L
aL280929L
aL304767L
aL344942L
aL344922L
aL345773L
aL445404L
aL520047L
aL534635L
aL534651L
aL527553L
aL527556L
aL526059L
aL633815L
aL609586L
aL576071L
aL568966L
aL709443L
aL696624L
aL708958L
aL708986L
aL691926L
aL793074L
aL717753L
aL1126286L
aL1046520L
aL1295597L
aL1132897L
aL1170378L
aL1185437L
aL1185476L
aL1303766L
aL1314069L
aL1315017L
aL2791674L
aL2808738L
aL2835506L
aL2837461L
asI2008
(lp120
L10556L
aL32626L
aL36772L
aL57823L
aL85623L
aL100207L
aL235484L
aL235539L
aL235549L
aL237053L
aL255588L
aL264220L
aL253537L
aL253542L
aL345112L
aL365417L
aL350182L
aL519981L
aL520050L
aL519682L
aL675471L
aL608998L
aL716605L
aL690783L
aL691538L
aL692002L
aL877634L
aL811365L
aL735820L
aL731177L
aL730643L
aL1112240L
aL1120553L
aL1004636L
aL991173L
aL929516L
aL937358L
aL1243255L
aL1295377L
aL1133069L
aL1243081L
aL1327223L
aL1327416L
aL1327300L
aL1321946L
aL2821328L
aL2846095L
aL3208426L
asI2009
(lp121
L235583L
aL712427L
aL712531L
aL678065L
aL1265911L
aL1252938L
aL1248542L
aL1276444L
aL1276279L
aL1267923L
aL1266029L
aL1284618L
aL1284400L
aL1301912L
aL1301881L
aL1126448L
aL1209340L
aL1237774L
aL1209365L
aL1236132L
aL1324797L
aL1343344L
aL1342234L
aL1345466L
aL1303621L
aL1305079L
aL1306205L
aL1311101L
aL1313959L
aL1314360L
aL1318386L
aL1319480L
aL1320398L
aL1320478L
aL2776726L
aL2780520L
aL2806727L
aL2808026L
aL2808740L
aL2808754L
aL2813311L
aL2815799L
aL2835576L
aL2851869L
aL2933491L
aL2975934L
aL3015069L
aL3018551L
aL3190111L
aL3190290L
assI225691
(dp122
I2000
(lp123
sI2001
(lp124
L3147734L
asI2002
(lp125
L334256L
aL349484L
aL650904L
aL733585L
aL733497L
asI2003
(lp126
L243352L
aL249055L
aL261854L
aL499789L
aL511082L
aL3045769L
asI2004
(lp127
L6802L
aL8266L
aL235717L
aL249056L
aL280585L
aL278881L
aL291531L
aL522215L
aL522969L
aL1024029L
aL1102318L
asI2005
(lp128
L10873L
aL60006L
aL72760L
aL93607L
aL129049L
aL236706L
aL337784L
aL425307L
aL498119L
aL522971L
aL635185L
aL956110L
aL763153L
aL766419L
aL768501L
aL1179729L
aL1041342L
aL2895231L
aL2992474L
asI2006
(lp129
L19629L
aL122539L
aL122288L
aL249057L
aL261096L
aL323809L
aL337219L
aL332131L
aL338111L
aL347652L
aL349549L
aL411670L
aL398678L
aL724360L
aL732481L
aL857418L
aL921069L
aL806568L
aL1163202L
aL992460L
asI2007
(lp130
L65209L
aL65373L
aL118893L
aL122836L
aL141094L
aL219221L
aL249626L
aL280683L
aL314057L
aL371126L
aL443547L
aL398757L
aL509479L
aL503482L
aL464050L
aL583919L
aL687483L
aL687443L
aL675121L
aL720471L
aL695810L
aL896014L
aL767013L
aL1123027L
aL993005L
aL993070L
aL1269842L
aL1195093L
aL2864760L
aL2895324L
asI2008
(lp131
L154947L
aL155020L
aL178100L
aL178134L
aL218107L
aL218523L
aL218240L
aL253472L
aL303689L
aL302116L
aL365290L
aL350612L
aL443867L
aL473726L
aL527619L
aL559285L
aL652393L
aL652256L
aL608973L
aL690517L
aL675438L
aL675428L
aL720138L
aL709104L
aL733219L
aL730647L
aL727231L
aL904926L
aL767958L
aL1123179L
aL1185492L
aL1042648L
aL1075787L
aL1265653L
aL1305339L
aL1218857L
aL1328225L
aL3038464L
aL3038630L
aL3118320L
asI2009
(lp132
L250442L
aL527702L
aL652412L
aL1169621L
aL1255135L
aL1248983L
aL1246182L
aL1275992L
aL1206987L
aL1206974L
aL1240043L
aL1236119L
aL1226712L
aL1322632L
aL1319502L
aL1319722L
aL1323179L
aL1310218L
aL1314750L
aL1310195L
aL1317793L
aL1317546L
aL1327704L
aL1327960L
aL1327907L
aL2833750L
aL2877310L
aL2880734L
aL2960644L
aL3031256L
aL3133215L
aL3142304L
aL3191929L
ass.